target datalayout = "e-m:e-p270:32:32-p271:32:32-p272:64:64-i64:64-i128:128-f80:128-n8:16:32:64-S128"
target triple = "x86_64-pc-linux-gnu"

%struct.timeval = type { i64, i64 }
%struct.__va_list_tag = type { i32, i32, ptr, ptr }
%struct._logentry = type { i32, i8, i16, i64, %struct.timeval, i32, [0 x %union.anon] }
%union.anon = type { i8 }
%struct._stritem = type { ptr, ptr, ptr, i32, i32, i32, i16, i16, i8, i8, [0 x %union.anon.12] }
%union.anon.12 = type { i64 }
%struct.logentry_ext_write = type { i64, i32, i16, i8, i8, i8, [0 x i8] }

@current_time = external global i32, align 4

; Function Attrs: nounwind uwtable
define internal void @_logger_log_ext_write(ptr noundef %0, ptr noundef %1, ptr noundef %2, ptr noundef %3) #0 {
  %5 = alloca ptr, align 8
  %6 = alloca ptr, align 8
  %7 = alloca ptr, align 8
  %8 = alloca ptr, align 8
  %9 = alloca ptr, align 8
  %10 = alloca i32, align 4
  %11 = alloca ptr, align 8
  store ptr %0, ptr %5, align 8, !tbaa !33
  store ptr %1, ptr %6, align 8, !tbaa !30
  store ptr %2, ptr %7, align 8, !tbaa !28
  store ptr %3, ptr %8, align 8, !tbaa !105
  call void @llvm.lifetime.start.p0(i64 8, ptr %9) #11
  %12 = load ptr, ptr %7, align 8, !tbaa !28
  store ptr %12, ptr %9, align 8, !tbaa !110
  call void @llvm.lifetime.start.p0(i64 4, ptr %10) #11
  %13 = load ptr, ptr %8, align 8, !tbaa !105
  %14 = getelementptr inbounds nuw %struct.__va_list_tag, ptr %13, i32 0, i32 0
  %15 = load i32, ptr %14, align 8
  %16 = icmp ule i32 %15, 40
  br i1 %16, label %17, label %22

17:                                               ; preds = %4
  %18 = getelementptr inbounds nuw %struct.__va_list_tag, ptr %13, i32 0, i32 3
  %19 = load ptr, ptr %18, align 8
  %20 = getelementptr i8, ptr %19, i32 %15
  %21 = add i32 %15, 8
  store i32 %21, ptr %14, align 8
  br label %26

22:                                               ; preds = %4
  %23 = getelementptr inbounds nuw %struct.__va_list_tag, ptr %13, i32 0, i32 2
  %24 = load ptr, ptr %23, align 8
  %25 = getelementptr i8, ptr %24, i32 8
  store ptr %25, ptr %23, align 8
  br label %26

26:                                               ; preds = %22, %17
  %27 = phi ptr [ %20, %17 ], [ %24, %22 ]
  %28 = load i32, ptr %27, align 4, !tbaa !11
  store i32 %28, ptr %10, align 4, !tbaa !11
  call void @llvm.lifetime.start.p0(i64 8, ptr %11) #11
  %29 = load ptr, ptr %5, align 8, !tbaa !33
  %30 = getelementptr inbounds nuw %struct._logentry, ptr %29, i32 0, i32 6
  %31 = getelementptr inbounds [0 x %union.anon], ptr %30, i64 0, i64 0
  store ptr %31, ptr %11, align 8, !tbaa !130
  %32 = load ptr, ptr %9, align 8, !tbaa !110
  %33 = getelementptr inbounds nuw %struct._stritem, ptr %32, i32 0, i32 4
  %34 = load i32, ptr %33, align 4, !tbaa !11
  %35 = icmp ugt i32 %34, 0
  br i1 %35, label %36, label %43

36:                                               ; preds = %26
  %37 = load ptr, ptr %9, align 8, !tbaa !110
  %38 = getelementptr inbounds nuw %struct._stritem, ptr %37, i32 0, i32 4
  %39 = load i32, ptr %38, align 4, !tbaa !11
  %40 = load volatile i32, ptr @current_time, align 4, !tbaa !11
  %41 = sub i32 %39, %40
  %42 = zext i32 %41 to i64
  br label %44

43:                                               ; preds = %26
  br label %44

44:                                               ; preds = %43, %36
  %45 = phi i64 [ %42, %36 ], [ -1, %43 ]
  %46 = load ptr, ptr %11, align 8, !tbaa !130
  %47 = getelementptr inbounds nuw %struct.logentry_ext_write, ptr %46, i32 0, i32 0
  store i64 %45, ptr %47, align 8, !tbaa !114
  %48 = load volatile i32, ptr @current_time, align 4, !tbaa !11
  %49 = load ptr, ptr %9, align 8, !tbaa !110
  %50 = getelementptr inbounds nuw %struct._stritem, ptr %49, i32 0, i32 3
  %51 = load i32, ptr %50, align 8, !tbaa !11
  %52 = sub i32 %48, %51
  %53 = load ptr, ptr %11, align 8, !tbaa !130
  %54 = getelementptr inbounds nuw %struct.logentry_ext_write, ptr %53, i32 0, i32 1
  store i32 %52, ptr %54, align 8, !tbaa !11
  %55 = load ptr, ptr %9, align 8, !tbaa !110
  %56 = getelementptr inbounds nuw %struct._stritem, ptr %55, i32 0, i32 7
  %57 = load i16, ptr %56, align 2, !tbaa !38
  %58 = load ptr, ptr %11, align 8, !tbaa !130
  %59 = getelementptr inbounds nuw %struct.logentry_ext_write, ptr %58, i32 0, i32 2
  store i16 %57, ptr %59, align 4, !tbaa !38
  %60 = load ptr, ptr %9, align 8, !tbaa !110
  %61 = getelementptr inbounds nuw %struct._stritem, ptr %60, i32 0, i32 9
  %62 = load i8, ptr %61, align 1, !tbaa !36
  %63 = load ptr, ptr %11, align 8, !tbaa !130
  %64 = getelementptr inbounds nuw %struct.logentry_ext_write, ptr %63, i32 0, i32 3
  store i8 %62, ptr %64, align 2, !tbaa !36
  %65 = load ptr, ptr %9, align 8, !tbaa !110
  %66 = getelementptr inbounds nuw %struct._stritem, ptr %65, i32 0, i32 8
  %67 = load i8, ptr %66, align 8, !tbaa !36
  %68 = zext i8 %67 to i32
  %69 = and i32 %68, -193
  %70 = trunc i32 %69 to i8
  %71 = load ptr, ptr %11, align 8, !tbaa !130
  %72 = getelementptr inbounds nuw %struct.logentry_ext_write, ptr %71, i32 0, i32 4
  store i8 %70, ptr %72, align 1, !tbaa !36
  %73 = load i32, ptr %10, align 4, !tbaa !11
  %74 = trunc i32 %73 to i8
  %75 = load ptr, ptr %11, align 8, !tbaa !130
  %76 = getelementptr inbounds nuw %struct.logentry_ext_write, ptr %75, i32 0, i32 5
  store i8 %74, ptr %76, align 8, !tbaa !36
  %77 = load ptr, ptr %11, align 8, !tbaa !130
  %78 = getelementptr inbounds nuw %struct.logentry_ext_write, ptr %77, i32 0, i32 6
  %79 = getelementptr inbounds [0 x i8], ptr %78, i64 0, i64 0
  %80 = load ptr, ptr %9, align 8, !tbaa !110
  %81 = getelementptr inbounds nuw %struct._stritem, ptr %80, i32 0, i32 10
  %82 = load ptr, ptr %9, align 8, !tbaa !110
  %83 = getelementptr inbounds nuw %struct._stritem, ptr %82, i32 0, i32 7
  %84 = load i16, ptr %83, align 2, !tbaa !38
  %85 = zext i16 %84 to i32
  %86 = and i32 %85, 2
  %87 = icmp ne i32 %86, 0
  %88 = select i1 %87, i64 8, i64 0
  %89 = getelementptr inbounds nuw i8, ptr %81, i64 %88
  %90 = load ptr, ptr %9, align 8, !tbaa !110
  %91 = getelementptr inbounds nuw %struct._stritem, ptr %90, i32 0, i32 9
  %92 = load i8, ptr %91, align 1, !tbaa !36
  %93 = zext i8 %92 to i64
  call void @llvm.memcpy.p0.p0.i64(ptr align 1 %79, ptr align 1 %89, i64 %93, i1 false)
  %94 = load ptr, ptr %11, align 8, !tbaa !130
  %95 = getelementptr inbounds nuw %struct.logentry_ext_write, ptr %94, i32 0, i32 3
  %96 = load i8, ptr %95, align 2, !tbaa !36
  %97 = zext i8 %96 to i64
  %98 = add i64 24, %97
  %99 = trunc i64 %98 to i32
  %100 = load ptr, ptr %5, align 8, !tbaa !33
  %101 = getelementptr inbounds nuw %struct._logentry, ptr %100, i32 0, i32 5
  store i32 %99, ptr %101, align 8, !tbaa !11
  call void @llvm.lifetime.end.p0(i64 8, ptr %11) #11
  call void @llvm.lifetime.end.p0(i64 4, ptr %10) #11
  call void @llvm.lifetime.end.p0(i64 8, ptr %9) #11
  ret void
}