; Function Attrs: mustprogress nofree norecurse nounwind willreturn uwtable
define internal void @_logger_log_ext_write(ptr noundef writeonly captures(none) initializes((32, 53)) %0, ptr readnone captures(none) %1, ptr noundef readonly captures(none) %2, ptr noundef captures(none) %3) #13 {
  %5 = load i32, ptr %3, align 8
  %6 = icmp ult i32 %5, 41
  br i1 %6, label %7, label %13

7:                                                ; preds = %4
  %8 = getelementptr inbounds nuw i8, ptr %3, i64 16
  %9 = load ptr, ptr %8, align 8
  %10 = zext nneg i32 %5 to i64
  %11 = getelementptr i8, ptr %9, i64 %10
  %12 = add nuw nsw i32 %5, 8
  store i32 %12, ptr %3, align 8
  br label %17

13:                                               ; preds = %4
  %14 = getelementptr inbounds nuw i8, ptr %3, i64 8
  %15 = load ptr, ptr %14, align 8
  %16 = getelementptr i8, ptr %15, i64 8
  store ptr %16, ptr %14, align 8
  br label %17

17:                                               ; preds = %13, %7
  %18 = phi ptr [ %11, %7 ], [ %15, %13 ]
  %19 = load i32, ptr %18, align 4, !tbaa !9
  %20 = getelementptr inbounds nuw i8, ptr %2, i64 28
  %21 = load i32, ptr %20, align 4, !tbaa !9
  %.not = icmp eq i32 %21, 0
  br i1 %.not, label %26, label %22

22:                                               ; preds = %17
  %23 = load volatile i32, ptr @current_time, align 4, !tbaa !9
  %24 = sub i32 %21, %23
  %25 = zext i32 %24 to i64
  br label %26

26:                                               ; preds = %17, %22
  %27 = phi i64 [ %25, %22 ], [ -1, %17 ]
  %28 = getelementptr inbounds nuw i8, ptr %0, i64 36
  store i64 %27, ptr %28, align 8, !tbaa !93
  %29 = load volatile i32, ptr @current_time, align 4, !tbaa !9
  %30 = getelementptr inbounds nuw i8, ptr %2, i64 24
  %31 = load i32, ptr %30, align 8, !tbaa !9
  %32 = sub i32 %29, %31
  %33 = getelementptr inbounds nuw i8, ptr %0, i64 44
  store i32 %32, ptr %33, align 8, !tbaa !9
  %34 = getelementptr inbounds nuw i8, ptr %2, i64 38
  %35 = load i16, ptr %34, align 2, !tbaa !33
  %36 = getelementptr inbounds nuw i8, ptr %0, i64 48
  store i16 %35, ptr %36, align 4, !tbaa !33
  %37 = getelementptr inbounds nuw i8, ptr %2, i64 41
  %38 = load i8, ptr %37, align 1, !tbaa !31
  %39 = getelementptr inbounds nuw i8, ptr %0, i64 50
  store i8 %38, ptr %39, align 2, !tbaa !31
  %40 = getelementptr inbounds nuw i8, ptr %2, i64 40
  %41 = load i8, ptr %40, align 8, !tbaa !31
  %42 = and i8 %41, 63
  %43 = getelementptr inbounds nuw i8, ptr %0, i64 51
  store i8 %42, ptr %43, align 1, !tbaa !31
  %44 = trunc i32 %19 to i8
  %45 = getelementptr inbounds nuw i8, ptr %0, i64 52
  store i8 %44, ptr %45, align 8, !tbaa !31
  %46 = getelementptr inbounds nuw i8, ptr %0, i64 53
  %47 = getelementptr inbounds nuw i8, ptr %2, i64 48
  %48 = load i16, ptr %34, align 2, !tbaa !33
  %49 = shl i16 %48, 2
  %50 = and i16 %49, 8
  %51 = zext nneg i16 %50 to i64
  %52 = getelementptr inbounds nuw i8, ptr %47, i64 %51
  %53 = load i8, ptr %37, align 1, !tbaa !31
  %54 = zext i8 %53 to i64
  tail call void @llvm.memcpy.p0.p0.i64(ptr nonnull align 1 %46, ptr nonnull align 1 %52, i64 %54, i1 false)
  %55 = zext i8 %38 to i32
  %56 = add nuw nsw i32 %55, 24
  %57 = getelementptr inbounds nuw i8, ptr %0, i64 32
  store i32 %56, ptr %57, align 8, !tbaa !9
  ret void
}